target datalayout = "e-m:e-p270:32:32-p271:32:32-p272:64:64-i64:64-i128:128-f80:128-n8:16:32:64-S128"
target triple = "x86_64-pc-linux-gnu"

%"class.std::__cxx11::basic_string" = type { %"struct.std::__cxx11::basic_string<char>::_Alloc_hider", i64, %union.anon }
%"struct.std::__cxx11::basic_string<char>::_Alloc_hider" = type { ptr }
%union.anon = type { i64, [8 x i8] }
%"class.std::allocator.0" = type { i8 }

@__dso_handle = external hidden global i8
@_ZZN7rocksdb29InvalidWriteStallHyphenStringB5cxx11EvE30kInvalidWriteStallHyphenStringB5cxx11 = internal global %"class.std::__cxx11::basic_string" zeroinitializer, align 8
@_ZGVZN7rocksdb29InvalidWriteStallHyphenStringB5cxx11EvE30kInvalidWriteStallHyphenStringB5cxx11 = internal global i64 0, align 8
@.str.40 = private unnamed_addr constant [8 x i8] c"invalid\00", align 1
@_ZZN7rocksdb33WriteStallConditionToHyphenStringB5cxx11ENS_19WriteStallConditionEE8kDelayedB5cxx11 = internal global %"class.std::__cxx11::basic_string" zeroinitializer, align 8
@_ZGVZN7rocksdb33WriteStallConditionToHyphenStringB5cxx11ENS_19WriteStallConditionEE8kDelayedB5cxx11 = internal global i64 0, align 8
@.str.45 = private unnamed_addr constant [7 x i8] c"delays\00", align 1
@_ZZN7rocksdb33WriteStallConditionToHyphenStringB5cxx11ENS_19WriteStallConditionEE8kStoppedB5cxx11 = internal global %"class.std::__cxx11::basic_string" zeroinitializer, align 8
@_ZGVZN7rocksdb33WriteStallConditionToHyphenStringB5cxx11ENS_19WriteStallConditionEE8kStoppedB5cxx11 = internal global i64 0, align 8
@.str.46 = private unnamed_addr constant [6 x i8] c"stops\00", align 1

; Function Attrs: mustprogress nounwind uwtable
define linkonce_odr void @_ZNSt15__new_allocatorIcEC2Ev(ptr noundef nonnull align 1 dereferenceable(1) %0) unnamed_addr #3 comdat align 2 {
  %2 = alloca ptr, align 8
  store ptr %0, ptr %2, align 8, !tbaa !65
  ret void
}

; Function Attrs: mustprogress uwtable
define noundef nonnull align 8 dereferenceable(32) ptr @_ZN7rocksdb29InvalidWriteStallHyphenStringB5cxx11Ev() #5 personality ptr @__gxx_personality_v0 {
  %1 = alloca %"class.std::allocator.0", align 1
  %2 = alloca ptr, align 8
  %3 = alloca i32, align 4
  %4 = load atomic i8, ptr @_ZGVZN7rocksdb29InvalidWriteStallHyphenStringB5cxx11EvE30kInvalidWriteStallHyphenStringB5cxx11 acquire, align 8
  %5 = icmp eq i8 %4, 0
  br i1 %5, label %6, label %12, !prof !46

6:                                                ; preds = %0
  %7 = call i32 @__cxa_guard_acquire(ptr @_ZGVZN7rocksdb29InvalidWriteStallHyphenStringB5cxx11EvE30kInvalidWriteStallHyphenStringB5cxx11) #4
  %8 = icmp ne i32 %7, 0
  br i1 %8, label %9, label %12

9:                                                ; preds = %6
  call void @llvm.lifetime.start.p0(i64 1, ptr %1) #4
  call void @_ZNSaIcEC2Ev(ptr noundef nonnull align 1 dereferenceable(1) %1) #4
  invoke void @_ZNSt7__cxx1112basic_stringIcSt11char_traitsIcESaIcEEC2IS3_EEPKcRKS3_(ptr noundef nonnull align 8 dereferenceable(32) @_ZZN7rocksdb29InvalidWriteStallHyphenStringB5cxx11EvE30kInvalidWriteStallHyphenStringB5cxx11, ptr noundef @.str.40, ptr noundef nonnull align 1 dereferenceable(1) %1)
          to label %10 unwind label %13

10:                                               ; preds = %9
  call void @_ZNSt15__new_allocatorIcED2Ev(ptr noundef nonnull align 1 dereferenceable(1) %1) #4
  call void @llvm.lifetime.end.p0(i64 1, ptr %1) #4
  %11 = call i32 @__cxa_atexit(ptr @_ZNSt7__cxx1112basic_stringIcSt11char_traitsIcESaIcEED2Ev, ptr @_ZZN7rocksdb29InvalidWriteStallHyphenStringB5cxx11EvE30kInvalidWriteStallHyphenStringB5cxx11, ptr @__dso_handle) #4
  call void @__cxa_guard_release(ptr @_ZGVZN7rocksdb29InvalidWriteStallHyphenStringB5cxx11EvE30kInvalidWriteStallHyphenStringB5cxx11) #4
  br label %12

12:                                               ; preds = %10, %6, %0
  ret ptr @_ZZN7rocksdb29InvalidWriteStallHyphenStringB5cxx11EvE30kInvalidWriteStallHyphenStringB5cxx11

13:                                               ; preds = %9
  %14 = landingpad { ptr, i32 }
          cleanup
  %15 = extractvalue { ptr, i32 } %14, 0
  store ptr %15, ptr %2, align 8
  %16 = extractvalue { ptr, i32 } %14, 1
  store i32 %16, ptr %3, align 4
  call void @_ZNSt15__new_allocatorIcED2Ev(ptr noundef nonnull align 1 dereferenceable(1) %1) #4
  call void @llvm.lifetime.end.p0(i64 1, ptr %1) #4
  call void @__cxa_guard_abort(ptr @_ZGVZN7rocksdb29InvalidWriteStallHyphenStringB5cxx11EvE30kInvalidWriteStallHyphenStringB5cxx11) #4
  br label %17

17:                                               ; preds = %13
  %18 = load ptr, ptr %2, align 8
  %19 = load i32, ptr %3, align 4
  %20 = insertvalue { ptr, i32 } poison, ptr %18, 0
  %21 = insertvalue { ptr, i32 } %20, i32 %19, 1
  resume { ptr, i32 } %21
}

; Function Attrs: mustprogress nounwind uwtable
define linkonce_odr void @_ZNSt15__new_allocatorIcED2Ev(ptr noundef nonnull align 1 dereferenceable(1) %0) unnamed_addr #3 comdat align 2 {
  %2 = alloca ptr, align 8
  store ptr %0, ptr %2, align 8, !tbaa !65
  ret void
}

; Function Attrs: mustprogress nounwind uwtable
define available_externally void @_ZNSaIcEC2Ev(ptr noundef nonnull align 1 dereferenceable(1) %0) unnamed_addr #3 align 2 {
  %2 = alloca ptr, align 8
  store ptr %0, ptr %2, align 8, !tbaa !23
  %3 = load ptr, ptr %2, align 8
  call void @_ZNSt15__new_allocatorIcEC2Ev(ptr noundef nonnull align 1 dereferenceable(1) %3) #4
  ret void
}

; Function Attrs: mustprogress uwtable
define noundef nonnull align 8 dereferenceable(32) ptr @_ZN7rocksdb33WriteStallConditionToHyphenStringB5cxx11ENS_19WriteStallConditionE(i32 noundef %0) #5 personality ptr @__gxx_personality_v0 {
  %2 = alloca ptr, align 8
  %3 = alloca i32, align 4
  %4 = alloca %"class.std::allocator.0", align 1
  %5 = alloca ptr, align 8
  %6 = alloca i32, align 4
  %7 = alloca %"class.std::allocator.0", align 1
  store i32 %0, ptr %3, align 4, !tbaa !49
  %8 = load atomic i8, ptr @_ZGVZN7rocksdb33WriteStallConditionToHyphenStringB5cxx11ENS_19WriteStallConditionEE8kDelayedB5cxx11 acquire, align 8
  %9 = icmp eq i8 %8, 0
  br i1 %9, label %10, label %16, !prof !46

10:                                               ; preds = %1
  %11 = call i32 @__cxa_guard_acquire(ptr @_ZGVZN7rocksdb33WriteStallConditionToHyphenStringB5cxx11ENS_19WriteStallConditionEE8kDelayedB5cxx11) #4
  %12 = icmp ne i32 %11, 0
  br i1 %12, label %13, label %16

13:                                               ; preds = %10
  call void @llvm.lifetime.start.p0(i64 1, ptr %4) #4
  call void @_ZNSaIcEC2Ev(ptr noundef nonnull align 1 dereferenceable(1) %4) #4
  invoke void @_ZNSt7__cxx1112basic_stringIcSt11char_traitsIcESaIcEEC2IS3_EEPKcRKS3_(ptr noundef nonnull align 8 dereferenceable(32) @_ZZN7rocksdb33WriteStallConditionToHyphenStringB5cxx11ENS_19WriteStallConditionEE8kDelayedB5cxx11, ptr noundef @.str.45, ptr noundef nonnull align 1 dereferenceable(1) %4)
          to label %14 unwind label %27

14:                                               ; preds = %13
  call void @_ZNSt15__new_allocatorIcED2Ev(ptr noundef nonnull align 1 dereferenceable(1) %4) #4
  call void @llvm.lifetime.end.p0(i64 1, ptr %4) #4
  %15 = call i32 @__cxa_atexit(ptr @_ZNSt7__cxx1112basic_stringIcSt11char_traitsIcESaIcEED2Ev, ptr @_ZZN7rocksdb33WriteStallConditionToHyphenStringB5cxx11ENS_19WriteStallConditionEE8kDelayedB5cxx11, ptr @__dso_handle) #4
  call void @__cxa_guard_release(ptr @_ZGVZN7rocksdb33WriteStallConditionToHyphenStringB5cxx11ENS_19WriteStallConditionEE8kDelayedB5cxx11) #4
  br label %16

16:                                               ; preds = %14, %10, %1
  %17 = load atomic i8, ptr @_ZGVZN7rocksdb33WriteStallConditionToHyphenStringB5cxx11ENS_19WriteStallConditionEE8kStoppedB5cxx11 acquire, align 8
  %18 = icmp eq i8 %17, 0
  br i1 %18, label %19, label %25, !prof !46

19:                                               ; preds = %16
  %20 = call i32 @__cxa_guard_acquire(ptr @_ZGVZN7rocksdb33WriteStallConditionToHyphenStringB5cxx11ENS_19WriteStallConditionEE8kStoppedB5cxx11) #4
  %21 = icmp ne i32 %20, 0
  br i1 %21, label %22, label %25

22:                                               ; preds = %19
  call void @llvm.lifetime.start.p0(i64 1, ptr %7) #4
  call void @_ZNSaIcEC2Ev(ptr noundef nonnull align 1 dereferenceable(1) %7) #4
  invoke void @_ZNSt7__cxx1112basic_stringIcSt11char_traitsIcESaIcEEC2IS3_EEPKcRKS3_(ptr noundef nonnull align 8 dereferenceable(32) @_ZZN7rocksdb33WriteStallConditionToHyphenStringB5cxx11ENS_19WriteStallConditionEE8kStoppedB5cxx11, ptr noundef @.str.46, ptr noundef nonnull align 1 dereferenceable(1) %7)
          to label %23 unwind label %31

23:                                               ; preds = %22
  call void @_ZNSt15__new_allocatorIcED2Ev(ptr noundef nonnull align 1 dereferenceable(1) %7) #4
  call void @llvm.lifetime.end.p0(i64 1, ptr %7) #4
  %24 = call i32 @__cxa_atexit(ptr @_ZNSt7__cxx1112basic_stringIcSt11char_traitsIcESaIcEED2Ev, ptr @_ZZN7rocksdb33WriteStallConditionToHyphenStringB5cxx11ENS_19WriteStallConditionEE8kStoppedB5cxx11, ptr @__dso_handle) #4
  call void @__cxa_guard_release(ptr @_ZGVZN7rocksdb33WriteStallConditionToHyphenStringB5cxx11ENS_19WriteStallConditionEE8kStoppedB5cxx11) #4
  br label %25

25:                                               ; preds = %23, %19, %16
  %26 = load i32, ptr %3, align 4, !tbaa !49
  switch i32 %26, label %37 [
    i32 0, label %35
    i32 1, label %36
  ]

27:                                               ; preds = %13
  %28 = landingpad { ptr, i32 }
          cleanup
  %29 = extractvalue { ptr, i32 } %28, 0
  store ptr %29, ptr %5, align 8
  %30 = extractvalue { ptr, i32 } %28, 1
  store i32 %30, ptr %6, align 4
  call void @_ZNSt15__new_allocatorIcED2Ev(ptr noundef nonnull align 1 dereferenceable(1) %4) #4
  call void @llvm.lifetime.end.p0(i64 1, ptr %4) #4
  call void @__cxa_guard_abort(ptr @_ZGVZN7rocksdb33WriteStallConditionToHyphenStringB5cxx11ENS_19WriteStallConditionEE8kDelayedB5cxx11) #4
  br label %42

31:                                               ; preds = %22
  %32 = landingpad { ptr, i32 }
          cleanup
  %33 = extractvalue { ptr, i32 } %32, 0
  store ptr %33, ptr %5, align 8
  %34 = extractvalue { ptr, i32 } %32, 1
  store i32 %34, ptr %6, align 4
  call void @_ZNSt15__new_allocatorIcED2Ev(ptr noundef nonnull align 1 dereferenceable(1) %7) #4
  call void @llvm.lifetime.end.p0(i64 1, ptr %7) #4
  call void @__cxa_guard_abort(ptr @_ZGVZN7rocksdb33WriteStallConditionToHyphenStringB5cxx11ENS_19WriteStallConditionEE8kStoppedB5cxx11) #4
  br label %42

35:                                               ; preds = %25
  store ptr @_ZZN7rocksdb33WriteStallConditionToHyphenStringB5cxx11ENS_19WriteStallConditionEE8kDelayedB5cxx11, ptr %2, align 8
  br label %40

36:                                               ; preds = %25
  store ptr @_ZZN7rocksdb33WriteStallConditionToHyphenStringB5cxx11ENS_19WriteStallConditionEE8kStoppedB5cxx11, ptr %2, align 8
  br label %40

37:                                               ; preds = %25
  br label %38

38:                                               ; preds = %37
  %39 = call noundef nonnull align 8 dereferenceable(32) ptr @_ZN7rocksdb29InvalidWriteStallHyphenStringB5cxx11Ev()
  store ptr %39, ptr %2, align 8
  br label %40

40:                                               ; preds = %38, %36, %35
  %41 = load ptr, ptr %2, align 8
  ret ptr %41

42:                                               ; preds = %31, %27
  %43 = load ptr, ptr %5, align 8
  %44 = load i32, ptr %6, align 4
  %45 = insertvalue { ptr, i32 } poison, ptr %43, 0
  %46 = insertvalue { ptr, i32 } %45, i32 %44, 1
  resume { ptr, i32 } %46
}