; Function Attrs: mustprogress uwtable
define noundef nonnull align 8 dereferenceable(32) ptr @_ZN7rocksdb33WriteStallConditionToHyphenStringB5cxx11ENS_19WriteStallConditionE(i32 noundef %0) local_unnamed_addr #3 personality ptr @__gxx_personality_v0 {
  %2 = alloca %"class.std::allocator.0", align 1
  %3 = alloca %"class.std::allocator.0", align 1
  %4 = alloca %"class.std::allocator.0", align 1
  %5 = load atomic i8, ptr @_ZGVZN7rocksdb33WriteStallConditionToHyphenStringB5cxx11ENS_19WriteStallConditionEE8kDelayedB5cxx11 acquire, align 8
  %6 = icmp eq i8 %5, 0
  br i1 %6, label %7, label %12, !prof !20

7:                                                ; preds = %1
  %8 = tail call i32 @__cxa_guard_acquire(ptr nonnull @_ZGVZN7rocksdb33WriteStallConditionToHyphenStringB5cxx11ENS_19WriteStallConditionEE8kDelayedB5cxx11) #16
  %.not = icmp eq i32 %8, 0
  br i1 %.not, label %12, label %9

9:                                                ; preds = %7
  call void @llvm.lifetime.start.p0(i64 1, ptr nonnull %3) #16
  invoke void @_ZNSt7__cxx1112basic_stringIcSt11char_traitsIcESaIcEEC2IS3_EEPKcRKS3_(ptr noundef nonnull align 8 dereferenceable(32) @_ZZN7rocksdb33WriteStallConditionToHyphenStringB5cxx11ENS_19WriteStallConditionEE8kDelayedB5cxx11, ptr noundef nonnull @.str.45, ptr noundef nonnull align 1 dereferenceable(1) %3)
          to label %10 unwind label %21

10:                                               ; preds = %9
  call void @llvm.lifetime.end.p0(i64 1, ptr nonnull %3) #16
  %11 = call i32 @__cxa_atexit(ptr nonnull @_ZNSt7__cxx1112basic_stringIcSt11char_traitsIcESaIcEED2Ev, ptr nonnull @_ZZN7rocksdb33WriteStallConditionToHyphenStringB5cxx11ENS_19WriteStallConditionEE8kDelayedB5cxx11, ptr nonnull @__dso_handle) #16
  call void @__cxa_guard_release(ptr nonnull @_ZGVZN7rocksdb33WriteStallConditionToHyphenStringB5cxx11ENS_19WriteStallConditionEE8kDelayedB5cxx11) #16
  br label %12

12:                                               ; preds = %10, %7, %1
  %13 = load atomic i8, ptr @_ZGVZN7rocksdb33WriteStallConditionToHyphenStringB5cxx11ENS_19WriteStallConditionEE8kStoppedB5cxx11 acquire, align 8
  %14 = icmp eq i8 %13, 0
  br i1 %14, label %15, label %20, !prof !20

15:                                               ; preds = %12
  %16 = call i32 @__cxa_guard_acquire(ptr nonnull @_ZGVZN7rocksdb33WriteStallConditionToHyphenStringB5cxx11ENS_19WriteStallConditionEE8kStoppedB5cxx11) #16
  %.not5 = icmp eq i32 %16, 0
  br i1 %.not5, label %20, label %17

17:                                               ; preds = %15
  call void @llvm.lifetime.start.p0(i64 1, ptr nonnull %4) #16
  invoke void @_ZNSt7__cxx1112basic_stringIcSt11char_traitsIcESaIcEEC2IS3_EEPKcRKS3_(ptr noundef nonnull align 8 dereferenceable(32) @_ZZN7rocksdb33WriteStallConditionToHyphenStringB5cxx11ENS_19WriteStallConditionEE8kStoppedB5cxx11, ptr noundef nonnull @.str.46, ptr noundef nonnull align 1 dereferenceable(1) %4)
          to label %18 unwind label %23

18:                                               ; preds = %17
  call void @llvm.lifetime.end.p0(i64 1, ptr nonnull %4) #16
  %19 = call i32 @__cxa_atexit(ptr nonnull @_ZNSt7__cxx1112basic_stringIcSt11char_traitsIcESaIcEED2Ev, ptr nonnull @_ZZN7rocksdb33WriteStallConditionToHyphenStringB5cxx11ENS_19WriteStallConditionEE8kStoppedB5cxx11, ptr nonnull @__dso_handle) #16
  call void @__cxa_guard_release(ptr nonnull @_ZGVZN7rocksdb33WriteStallConditionToHyphenStringB5cxx11ENS_19WriteStallConditionEE8kStoppedB5cxx11) #16
  br label %20

20:                                               ; preds = %18, %15, %12
  switch i32 %0, label %26 [
    i32 0, label %_ZN7rocksdb29InvalidWriteStallHyphenStringB5cxx11Ev.exit
    i32 1, label %25
  ]

21:                                               ; preds = %9
  %22 = landingpad { ptr, i32 }
          cleanup
  call void @llvm.lifetime.end.p0(i64 1, ptr nonnull %3) #16
  br label %common.resume

23:                                               ; preds = %17
  %24 = landingpad { ptr, i32 }
          cleanup
  call void @llvm.lifetime.end.p0(i64 1, ptr nonnull %4) #16
  br label %common.resume

25:                                               ; preds = %20
  br label %_ZN7rocksdb29InvalidWriteStallHyphenStringB5cxx11Ev.exit

26:                                               ; preds = %20
  %27 = load atomic i8, ptr @_ZGVZN7rocksdb29InvalidWriteStallHyphenStringB5cxx11EvE30kInvalidWriteStallHyphenStringB5cxx11 acquire, align 8
  %28 = icmp eq i8 %27, 0
  br i1 %28, label %29, label %_ZN7rocksdb29InvalidWriteStallHyphenStringB5cxx11Ev.exit, !prof !20

29:                                               ; preds = %26
  %30 = call i32 @__cxa_guard_acquire(ptr nonnull @_ZGVZN7rocksdb29InvalidWriteStallHyphenStringB5cxx11EvE30kInvalidWriteStallHyphenStringB5cxx11) #16
  %.not.i = icmp eq i32 %30, 0
  br i1 %.not.i, label %_ZN7rocksdb29InvalidWriteStallHyphenStringB5cxx11Ev.exit, label %31

31:                                               ; preds = %29
  call void @llvm.lifetime.start.p0(i64 1, ptr nonnull %2) #16
  invoke void @_ZNSt7__cxx1112basic_stringIcSt11char_traitsIcESaIcEEC2IS3_EEPKcRKS3_(ptr noundef nonnull align 8 dereferenceable(32) @_ZZN7rocksdb29InvalidWriteStallHyphenStringB5cxx11EvE30kInvalidWriteStallHyphenStringB5cxx11, ptr noundef nonnull @.str.40, ptr noundef nonnull align 1 dereferenceable(1) %2)
          to label %32 unwind label %34

32:                                               ; preds = %31
  call void @llvm.lifetime.end.p0(i64 1, ptr nonnull %2) #16
  %33 = call i32 @__cxa_atexit(ptr nonnull @_ZNSt7__cxx1112basic_stringIcSt11char_traitsIcESaIcEED2Ev, ptr nonnull @_ZZN7rocksdb29InvalidWriteStallHyphenStringB5cxx11EvE30kInvalidWriteStallHyphenStringB5cxx11, ptr nonnull @__dso_handle) #16
  call void @__cxa_guard_release(ptr nonnull @_ZGVZN7rocksdb29InvalidWriteStallHyphenStringB5cxx11EvE30kInvalidWriteStallHyphenStringB5cxx11) #16
  br label %_ZN7rocksdb29InvalidWriteStallHyphenStringB5cxx11Ev.exit

common.resume:                                    ; preds = %21, %23, %34
  %_ZGVZN7rocksdb33WriteStallConditionToHyphenStringB5cxx11ENS_19WriteStallConditionEE8kDelayedB5cxx11.sink = phi ptr [ @_ZGVZN7rocksdb33WriteStallConditionToHyphenStringB5cxx11ENS_19WriteStallConditionEE8kDelayedB5cxx11, %21 ], [ @_ZGVZN7rocksdb33WriteStallConditionToHyphenStringB5cxx11ENS_19WriteStallConditionEE8kStoppedB5cxx11, %23 ], [ @_ZGVZN7rocksdb29InvalidWriteStallHyphenStringB5cxx11EvE30kInvalidWriteStallHyphenStringB5cxx11, %34 ]
  %common.resume.op = phi { ptr, i32 } [ %22, %21 ], [ %24, %23 ], [ %35, %34 ]
  call void @__cxa_guard_abort(ptr nonnull %_ZGVZN7rocksdb33WriteStallConditionToHyphenStringB5cxx11ENS_19WriteStallConditionEE8kDelayedB5cxx11.sink) #16
  resume { ptr, i32 } %common.resume.op

34:                                               ; preds = %31
  %35 = landingpad { ptr, i32 }
          cleanup
  call void @llvm.lifetime.end.p0(i64 1, ptr nonnull %2) #16
  br label %common.resume

_ZN7rocksdb29InvalidWriteStallHyphenStringB5cxx11Ev.exit: ; preds = %32, %29, %26, %20, %25
  %.04 = phi ptr [ @_ZZN7rocksdb33WriteStallConditionToHyphenStringB5cxx11ENS_19WriteStallConditionEE8kStoppedB5cxx11, %25 ], [ @_ZZN7rocksdb33WriteStallConditionToHyphenStringB5cxx11ENS_19WriteStallConditionEE8kDelayedB5cxx11, %20 ], [ @_ZZN7rocksdb29InvalidWriteStallHyphenStringB5cxx11EvE30kInvalidWriteStallHyphenStringB5cxx11, %26 ], [ @_ZZN7rocksdb29InvalidWriteStallHyphenStringB5cxx11EvE30kInvalidWriteStallHyphenStringB5cxx11, %29 ], [ @_ZZN7rocksdb29InvalidWriteStallHyphenStringB5cxx11EvE30kInvalidWriteStallHyphenStringB5cxx11, %32 ]
  ret ptr %.04
}